target datalayout = "e-m:e-p270:32:32-p271:32:32-p272:64:64-i64:64-i128:128-f80:128-n8:16:32:64-S128"
target triple = "x86_64-unknown-linux-gnu"

%struct.argument = type { ptr, i32, ptr }

@stderr = external global ptr, align 8
@.str.5 = private unnamed_addr constant [7 x i8] c"%s\09%s\0A\00", align 1

; Function Attrs: mustprogress uwtable
define hidden void @_Z10PrintUsagePK8argument(ptr noundef %templates) #0 {
entry:
  %templates.addr = alloca ptr, align 8
  %i = alloca i64, align 8
  %templ = alloca ptr, align 8
  store ptr %templates, ptr %templates.addr, align 8
  store i64 0, ptr %i, align 8
  br label %for.cond

for.cond:                                         ; preds = %for.inc, %entry
  %0 = load ptr, ptr %templates.addr, align 8
  %1 = load i64, ptr %i, align 8
  %arrayidx = getelementptr inbounds %struct.argument, ptr %0, i64 %1
  %name = getelementptr inbounds %struct.argument, ptr %arrayidx, i32 0, i32 0
  %2 = load ptr, ptr %name, align 8
  %arrayidx1 = getelementptr inbounds i8, ptr %2, i64 0
  %3 = load i8, ptr %arrayidx1, align 1
  %conv = sext i8 %3 to i32
  %cmp = icmp ne i32 %conv, 0
  br i1 %cmp, label %for.body, label %for.end

for.body:                                         ; preds = %for.cond
  %4 = load ptr, ptr %templates.addr, align 8
  %5 = load i64, ptr %i, align 8
  %arrayidx2 = getelementptr inbounds %struct.argument, ptr %4, i64 %5
  store ptr %arrayidx2, ptr %templ, align 8
  %6 = load ptr, ptr @stderr, align 8
  %7 = load ptr, ptr %templ, align 8
  %name3 = getelementptr inbounds %struct.argument, ptr %7, i32 0, i32 0
  %8 = load ptr, ptr %name3, align 8
  %9 = load ptr, ptr %templ, align 8
  %description = getelementptr inbounds %struct.argument, ptr %9, i32 0, i32 2
  %10 = load ptr, ptr %description, align 8
  %call = call i32 (ptr, ptr, ...) @fprintf(ptr noundef %6, ptr noundef @.str.5, ptr noundef %8, ptr noundef %10)
  br label %for.inc

for.inc:                                          ; preds = %for.body
  %11 = load i64, ptr %i, align 8
  %inc = add i64 %11, 1
  store i64 %inc, ptr %i, align 8
  br label %for.cond, !llvm.loop !11

for.end:                                          ; preds = %for.cond
  ret void
}