; Function Attrs: mustprogress nofree nounwind uwtable
define hidden void @_Z10PrintUsagePK8argument(ptr noundef readonly captures(none) %templates) local_unnamed_addr #5 {
entry:
  %0 = load ptr, ptr %templates, align 8
  %1 = load i8, ptr %0, align 1
  %cmp.not5 = icmp eq i8 %1, 0
  br i1 %cmp.not5, label %for.end, label %for.body

for.body:                                         ; preds = %entry, %for.body
  %2 = phi ptr [ %5, %for.body ], [ %0, %entry ]
  %i.06 = phi i64 [ %inc, %for.body ], [ 0, %entry ]
  %3 = load ptr, ptr @stderr, align 8
  %description = getelementptr inbounds %struct.argument, ptr %templates, i64 %i.06, i32 2
  %4 = load ptr, ptr %description, align 8
  %call = tail call i32 (ptr, ptr, ...) @fprintf(ptr noundef %3, ptr noundef nonnull @.str.5, ptr noundef nonnull %2, ptr noundef %4) #16
  %inc = add i64 %i.06, 1
  %arrayidx = getelementptr inbounds %struct.argument, ptr %templates, i64 %inc
  %5 = load ptr, ptr %arrayidx, align 8
  %6 = load i8, ptr %5, align 1
  %cmp.not = icmp eq i8 %6, 0
  br i1 %cmp.not, label %for.end, label %for.body, !llvm.loop !12

for.end:                                          ; preds = %for.body, %entry
  ret void
}